; Function Attrs: mustprogress uwtable
define internal fastcc noundef ptr @_ZL36tsi_fake_handshake_message_to_stringi(i32 noundef %0) unnamed_addr #3 personality ptr @__gxx_personality_v0 {
  %2 = alloca i32, align 4
  %3 = alloca %"class.absl::lts_20240722::log_internal::LogMessage", align 8
  %or.cond = icmp ugt i32 %0, 3
  br i1 %or.cond, label %4, label %9

4:                                                ; preds = %1
  call void @llvm.lifetime.start.p0(i64 16, ptr nonnull %3) #20
  call void @_ZN4absl12lts_2024072212log_internal10LogMessageC1EPKciNS2_8ErrorTagE(ptr noundef nonnull align 8 dereferenceable(16) %3, ptr noundef nonnull @.str, i32 noundef 92) #21
  invoke void @_ZN4absl12lts_2024072212log_internal10LogMessage19CopyToEncodedBufferILNS2_10StringTypeE0EEEvSt17basic_string_viewIcSt11char_traitsIcEE(ptr noundef nonnull align 8 dereferenceable(16) %3, i64 16, ptr nonnull @.str.19)
          to label %_ZN4absl12lts_2024072212log_internal10LogMessagelsILi17EEERS2_RAT__Kc.exit unwind label %7

_ZN4absl12lts_2024072212log_internal10LogMessagelsILi17EEERS2_RAT__Kc.exit: ; preds = %4
  call void @llvm.lifetime.start.p0(i64 4, ptr nonnull %2)
  store i32 %0, ptr %2, align 4, !tbaa !62
  %5 = invoke noundef nonnull align 8 dereferenceable(16) ptr @_ZN4absl12lts_2024072212log_internal10LogMessagelsIiTnNSt9enable_ifIXntsr4absl16HasAbslStringifyIT_EE5valueEiE4typeELi0EEERS2_RKS5_(ptr noundef nonnull align 8 dereferenceable(16) %3, ptr noundef nonnull align 4 dereferenceable(4) %2)
          to label %6 unwind label %7

6:                                                ; preds = %_ZN4absl12lts_2024072212log_internal10LogMessagelsILi17EEERS2_RAT__Kc.exit
  call void @llvm.lifetime.end.p0(i64 4, ptr nonnull %2)
  call void @_ZN4absl12lts_2024072212log_internal10LogMessageD1Ev(ptr noundef nonnull align 8 dereferenceable(16) %3) #25
  call void @llvm.lifetime.end.p0(i64 16, ptr nonnull %3) #20
  br label %13

7:                                                ; preds = %_ZN4absl12lts_2024072212log_internal10LogMessagelsILi17EEERS2_RAT__Kc.exit, %4
  %8 = landingpad { ptr, i32 }
          cleanup
  call void @_ZN4absl12lts_2024072212log_internal10LogMessageD1Ev(ptr noundef nonnull align 8 dereferenceable(16) %3) #25
  call void @llvm.lifetime.end.p0(i64 16, ptr nonnull %3) #20
  resume { ptr, i32 } %8

9:                                                ; preds = %1
  %10 = zext nneg i32 %0 to i64
  %11 = getelementptr inbounds nuw [4 x ptr], ptr @_ZL34tsi_fake_handshake_message_strings, i64 0, i64 %10
  %12 = load ptr, ptr %11, align 8, !tbaa !56
  br label %13

13:                                               ; preds = %9, %6
  %.0 = phi ptr [ @.str.20, %6 ], [ %12, %9 ]
  ret ptr %.0
}